Certificate:
    Data:
        Version: 3 (0x2)
        Serial Number:
            2d:e5:97:8c:57:e7:7c:2f:7d:31:96:80:ff:e1:76:10:82:50:16:55
        Signature Algorithm: sha256WithRSAEncryption
        Issuer: CN=192.168.2.40
        Validity
            Not Before: Dec 15 22:55:26 2025 GMT
            Not After : Dec 13 22:55:26 2035 GMT
        Subject: CN=192.168.2.40
        Subject Public Key Info:
            Public Key Algorithm: rsaEncryption
                Public-Key: (2048 bit)
                Modulus:
                    00:b5:a9:1d:f6:c3:98:a3:3b:b0:7f:6b:a3:0e:39:
                    e4:bf:cd:6d:7e:b5:68:86:bf:13:34:53:fd:6b:85:
                    ba:7c:98:c7:81:7a:c2:1f:c7:a8:ee:06:7b:63:02:
                    88:19:40:89:1d:56:69:c6:70:09:0f:23:f3:d6:d5:
                    3f:12:ea:9e:6f:89:e5:99:4d:f1:42:15:0d:8b:b5:
                    52:05:c6:5b:39:0c:54:6b:fd:83:28:06:60:42:06:
                    de:bc:a1:66:9e:d1:31:31:22:0e:81:ea:d9:61:b8:
                    29:1f:2b:ad:06:3d:50:f9:7e:ec:3d:43:9a:b3:70:
                    ee:43:f3:d1:15:33:4e:3d:63:d2:ac:28:bd:53:ac:
                    a7:dd:dc:b0:04:de:dd:56:39:3a:99:60:a5:16:2d:
                    3c:00:23:a6:7c:11:2e:fb:82:1e:c1:6c:00:63:65:
                    6d:10:98:3d:37:44:97:93:e9:44:b8:b0:01:79:b4:
                    04:30:33:b2:66:57:b1:bd:ee:b2:fe:76:81:45:17:
                    48:7f:07:e0:91:ea:b1:02:e0:90:d0:b1:29:f9:f6:
                    df:94:61:dd:21:c3:9d:7e:ed:93:d4:3b:f0:c2:bb:
                    26:1d:ff:82:3d:9a:30:5d:db:c9:6a:0b:6b:88:71:
                    d6:81:58:5f:0d:ee:49:2b:60:c9:d1:6c:3a:82:c9:
                    fe:b3
                Exponent: 65537 (0x10001)
        X509v3 extensions:
            X509v3 Subject Key Identifier: 
                55:37:A0:D6:7C:AD:C0:52:35:6E:34:19:A8:25:83:CD:4F:C9:71:65
            X509v3 Authority Key Identifier: 
                55:37:A0:D6:7C:AD:C0:52:35:6E:34:19:A8:25:83:CD:4F:C9:71:65
            X509v3 Basic Constraints: critical
                CA:TRUE
    Signature Algorithm: sha256WithRSAEncryption
    Signature Value:
        06:54:e3:cf:cb:19:d6:78:4a:0a:d4:24:7b:04:53:b7:2e:21:
        c3:f2:8a:65:d0:c4:b9:7b:2e:8f:c7:3b:8f:45:e3:77:a8:16:
        64:a1:e3:0e:86:a6:fc:86:fa:6e:35:b3:31:5b:9c:ec:11:3e:
        2e:ed:32:5a:c9:a5:cb:9f:f8:4e:ef:a4:33:0d:84:16:af:8f:
        00:13:6a:22:db:2b:99:20:06:2f:77:03:20:7c:c5:07:2b:48:
        3e:db:2c:ec:0b:b4:5a:c5:31:ba:f1:8e:20:bb:38:f6:e5:b4:
        c4:10:db:c8:79:41:0c:e7:cf:93:9e:84:bb:bc:70:d8:b3:e2:
        ae:db:fc:00:f4:a4:49:04:a5:c5:8f:db:e8:61:6d:af:1b:2d:
        5e:92:e6:c3:d9:11:2f:48:87:b4:37:98:da:f7:ed:56:38:5b:
        40:40:d9:a9:26:b0:19:0c:c1:64:b2:84:eb:2a:66:3d:c1:63:
        e2:a6:7e:30:b4:55:6b:ca:e7:8c:5d:b7:38:29:81:94:f0:34:
        ea:52:92:10:30:3f:fc:8f:11:66:0e:9c:94:1b:1d:1a:f8:9c:
        d6:82:78:46:c6:b3:ef:24:7e:a2:2a:8f:0a:f0:3a:1c:78:b6:
        a2:c1:f8:60:77:da:b6:3f:a1:9a:6c:00:2e:c9:4d:13:c6:cf:
        52:18:58:18
-----BEGIN CERTIFICATE-----
MIIDDzCCAfegAwIBAgIULeWXjFfnfC99MZaA/+F2EIJQFlUwDQYJKoZIhvcNAQEL
BQAwFzEVMBMGA1UEAwwMMTkyLjE2OC4yLjQwMB4XDTI1MTIxNTIyNTUyNloXDTM1
MTIxMzIyNTUyNlowFzEVMBMGA1UEAwwMMTkyLjE2OC4yLjQwMIIBIjANBgkqhkiG
9w0BAQEFAAOCAQ8AMIIBCgKCAQEAtakd9sOYozuwf2ujDjnkv81tfrVohr8TNFP9
a4W6fJjHgXrCH8eo7gZ7YwKIGUCJHVZpxnAJDyPz1tU/Euqeb4nlmU3xQhUNi7VS
BcZbOQxUa/2DKAZgQgbevKFmntExMSIOgerZYbgpHyutBj1Q+X7sPUOas3DuQ/PR
FTNOPWPSrCi9U6yn3dywBN7dVjk6mWClFi08ACOmfBEu+4IewWwAY2VtEJg9N0SX
k+lEuLABebQEMDOyZlexve6y/naBRRdIfwfgkeqxAuCQ0LEp+fbflGHdIcOdfu2T
1DvwwrsmHf+CPZowXdvJagtriHHWgVhfDe5JK2DJ0Ww6gsn+swIDAQABo1MwUTAd
BgNVHQ4EFgQUVTeg1nytwFI1bjQZqCWDzU/JcWUwHwYDVR0jBBgwFoAUVTeg1nyt
wFI1bjQZqCWDzU/JcWUwDwYDVR0TAQH/BAUwAwEB/zANBgkqhkiG9w0BAQsFAAOC
AQEABlTjz8sZ1nhKCtQkewRTty4hw/KKZdDEuXsuj8c7j0Xjd6gWZKHjDoam/Ib6
bjWzMVuc7BE+Lu0yWsmly5/4Tu+kMw2EFq+PABNqItsrmSAGL3cDIHzFBytIPtss
7Au0WsUxuvGOILs49uW0xBDbyHlBDOfPk56Eu7xw2LPirtv8APSkSQSlxY/b6GFt
rxstXpLmw9kRL0iHtDeY2vftVjhbQEDZqSawGQzBZLKE6ypmPcFj4qZ+MLRVa8rn
jF23OCmBlPA06lKSEDA//I8RZg6clBsdGvic1oJ4Rsaz7yR+oiqPCvA6HHi2osH4
YHfatj+hmmwALslNE8bPUhhYGA==
-----END CERTIFICATE-----
